target datalayout = "e-m:e-p270:32:32-p271:32:32-p272:64:64-i64:64-i128:128-f80:128-n8:16:32:64-S128"
target triple = "x86_64-pc-linux-gnu"

%struct.pcre2_memctl = type { ptr, ptr, ptr }
%struct.dfa_match_block_8 = type { %struct.pcre2_memctl, ptr, ptr, ptr, ptr, ptr, ptr, i64, i32, i64, i32, i32, i32, i32, i32, i32, i32, i32, [4 x i8], i16, ptr, ptr, ptr, ptr }
%struct.RWS_anchor = type { ptr, i32, i32 }

; Function Attrs: nounwind uwtable
define internal i32 @more_workspace(ptr noundef %0, i32 noundef %1, ptr noundef %2) #0 {
  %4 = alloca i32, align 4
  %5 = alloca ptr, align 8
  %6 = alloca i32, align 4
  %7 = alloca ptr, align 8
  %8 = alloca ptr, align 8
  %9 = alloca ptr, align 8
  %10 = alloca i32, align 4
  %11 = alloca i32, align 4
  store ptr %0, ptr %5, align 8
  store i32 %1, ptr %6, align 4
  store ptr %2, ptr %7, align 8
  %12 = load ptr, ptr %5, align 8
  %13 = load ptr, ptr %12, align 8
  store ptr %13, ptr %8, align 8
  %14 = load ptr, ptr %8, align 8
  %15 = getelementptr inbounds %struct.RWS_anchor, ptr %14, i32 0, i32 0
  %16 = load ptr, ptr %15, align 8
  %17 = icmp ne ptr %16, null
  br i1 %17, label %18, label %22

18:                                               ; preds = %3
  %19 = load ptr, ptr %8, align 8
  %20 = getelementptr inbounds %struct.RWS_anchor, ptr %19, i32 0, i32 0
  %21 = load ptr, ptr %20, align 8
  store ptr %21, ptr %9, align 8
  br label %107

22:                                               ; preds = %3
  %23 = load ptr, ptr %8, align 8
  %24 = getelementptr inbounds %struct.RWS_anchor, ptr %23, i32 0, i32 1
  %25 = load i32, ptr %24, align 8
  %26 = zext i32 %25 to i64
  %27 = icmp uge i64 %26, 536870911
  br i1 %27, label %28, label %29

28:                                               ; preds = %22
  br label %35

29:                                               ; preds = %22
  %30 = load ptr, ptr %8, align 8
  %31 = getelementptr inbounds %struct.RWS_anchor, ptr %30, i32 0, i32 1
  %32 = load i32, ptr %31, align 8
  %33 = mul i32 %32, 2
  %34 = zext i32 %33 to i64
  br label %35

35:                                               ; preds = %29, %28
  %36 = phi i64 [ 1073741823, %28 ], [ %34, %29 ]
  %37 = trunc i64 %36 to i32
  store i32 %37, ptr %10, align 4
  %38 = load i32, ptr %10, align 4
  %39 = zext i32 %38 to i64
  %40 = udiv i64 %39, 256
  %41 = trunc i64 %40 to i32
  store i32 %41, ptr %11, align 4
  %42 = load i32, ptr %11, align 4
  %43 = zext i32 %42 to i64
  %44 = load ptr, ptr %7, align 8
  %45 = getelementptr inbounds %struct.dfa_match_block_8, ptr %44, i32 0, i32 9
  %46 = load i64, ptr %45, align 8
  %47 = add i64 %43, %46
  %48 = load ptr, ptr %7, align 8
  %49 = getelementptr inbounds %struct.dfa_match_block_8, ptr %48, i32 0, i32 8
  %50 = load i32, ptr %49, align 8
  %51 = zext i32 %50 to i64
  %52 = icmp ugt i64 %47, %51
  br i1 %52, label %53, label %63

53:                                               ; preds = %35
  %54 = load ptr, ptr %7, align 8
  %55 = getelementptr inbounds %struct.dfa_match_block_8, ptr %54, i32 0, i32 8
  %56 = load i32, ptr %55, align 8
  %57 = zext i32 %56 to i64
  %58 = load ptr, ptr %7, align 8
  %59 = getelementptr inbounds %struct.dfa_match_block_8, ptr %58, i32 0, i32 9
  %60 = load i64, ptr %59, align 8
  %61 = sub i64 %57, %60
  %62 = trunc i64 %61 to i32
  store i32 %62, ptr %11, align 4
  br label %63

63:                                               ; preds = %53, %35
  %64 = load i32, ptr %11, align 4
  %65 = zext i32 %64 to i64
  %66 = mul i64 %65, 256
  %67 = trunc i64 %66 to i32
  store i32 %67, ptr %10, align 4
  %68 = load i32, ptr %10, align 4
  %69 = zext i32 %68 to i64
  %70 = load i32, ptr %6, align 4
  %71 = add i32 1000, %70
  %72 = zext i32 %71 to i64
  %73 = add i64 %72, 4
  %74 = icmp ult i64 %69, %73
  br i1 %74, label %75, label %76

75:                                               ; preds = %63
  store i32 -63, ptr %4, align 4
  br label %118

76:                                               ; preds = %63
  %77 = load ptr, ptr %7, align 8
  %78 = getelementptr inbounds %struct.dfa_match_block_8, ptr %77, i32 0, i32 0
  %79 = getelementptr inbounds %struct.pcre2_memctl, ptr %78, i32 0, i32 0
  %80 = load ptr, ptr %79, align 8
  %81 = load i32, ptr %10, align 4
  %82 = zext i32 %81 to i64
  %83 = mul i64 %82, 4
  %84 = load ptr, ptr %7, align 8
  %85 = getelementptr inbounds %struct.dfa_match_block_8, ptr %84, i32 0, i32 0
  %86 = getelementptr inbounds %struct.pcre2_memctl, ptr %85, i32 0, i32 2
  %87 = load ptr, ptr %86, align 8
  %88 = call ptr %80(i64 noundef %83, ptr noundef %87)
  store ptr %88, ptr %9, align 8
  %89 = load ptr, ptr %9, align 8
  %90 = icmp eq ptr %89, null
  br i1 %90, label %91, label %92

91:                                               ; preds = %76
  store i32 -48, ptr %4, align 4
  br label %118

92:                                               ; preds = %76
  %93 = load i32, ptr %11, align 4
  %94 = zext i32 %93 to i64
  %95 = load ptr, ptr %7, align 8
  %96 = getelementptr inbounds %struct.dfa_match_block_8, ptr %95, i32 0, i32 9
  %97 = load i64, ptr %96, align 8
  %98 = add i64 %97, %94
  store i64 %98, ptr %96, align 8
  %99 = load ptr, ptr %9, align 8
  %100 = getelementptr inbounds %struct.RWS_anchor, ptr %99, i32 0, i32 0
  store ptr null, ptr %100, align 8
  %101 = load i32, ptr %10, align 4
  %102 = load ptr, ptr %9, align 8
  %103 = getelementptr inbounds %struct.RWS_anchor, ptr %102, i32 0, i32 1
  store i32 %101, ptr %103, align 8
  %104 = load ptr, ptr %9, align 8
  %105 = load ptr, ptr %8, align 8
  %106 = getelementptr inbounds %struct.RWS_anchor, ptr %105, i32 0, i32 0
  store ptr %104, ptr %106, align 8
  br label %107

107:                                              ; preds = %92, %18
  %108 = load ptr, ptr %9, align 8
  %109 = getelementptr inbounds %struct.RWS_anchor, ptr %108, i32 0, i32 1
  %110 = load i32, ptr %109, align 8
  %111 = zext i32 %110 to i64
  %112 = sub i64 %111, 4
  %113 = trunc i64 %112 to i32
  %114 = load ptr, ptr %9, align 8
  %115 = getelementptr inbounds %struct.RWS_anchor, ptr %114, i32 0, i32 2
  store i32 %113, ptr %115, align 4
  %116 = load ptr, ptr %9, align 8
  %117 = load ptr, ptr %5, align 8
  store ptr %116, ptr %117, align 8
  store i32 0, ptr %4, align 4
  br label %118

118:                                              ; preds = %107, %91, %75
  %119 = load i32, ptr %4, align 4
  ret i32 %119
}