; Function Attrs: nounwind uwtable
define internal fastcc noundef i32 @more_workspace(ptr nocapture noundef %0, i32 noundef %1, ptr nocapture noundef %2) unnamed_addr #0 {
  %4 = load ptr, ptr %0, align 8
  %5 = load ptr, ptr %4, align 8
  %.not = icmp eq ptr %5, null
  br i1 %.not, label %6, label %38

6:                                                ; preds = %3
  %7 = getelementptr inbounds i8, ptr %4, i64 8
  %8 = load i32, ptr %7, align 8
  %9 = icmp ugt i32 %8, 536870910
  %10 = lshr i32 %8, 7
  %spec.select = select i1 %9, i32 4194303, i32 %10
  %11 = zext nneg i32 %spec.select to i64
  %12 = getelementptr inbounds i8, ptr %2, i64 88
  %13 = load i64, ptr %12, align 8
  %14 = add i64 %13, %11
  %15 = getelementptr inbounds i8, ptr %2, i64 80
  %16 = load i32, ptr %15, align 8
  %17 = zext i32 %16 to i64
  %18 = icmp ugt i64 %14, %17
  %19 = trunc i64 %13 to i32
  %20 = sub i32 %16, %19
  %.0 = select i1 %18, i32 %20, i32 %spec.select
  %21 = zext i32 %.0 to i64
  %22 = shl i32 %.0, 8
  %23 = zext i32 %22 to i64
  %24 = zext i32 %1 to i64
  %25 = add nuw nsw i64 %24, 1004
  %26 = icmp ugt i64 %25, %23
  br i1 %26, label %43, label %27

27:                                               ; preds = %6
  %28 = load ptr, ptr %2, align 8
  %29 = shl nuw nsw i64 %23, 2
  %30 = getelementptr inbounds i8, ptr %2, i64 16
  %31 = load ptr, ptr %30, align 8
  %32 = tail call ptr %28(i64 noundef %29, ptr noundef %31) #6
  %33 = icmp eq ptr %32, null
  br i1 %33, label %43, label %34

34:                                               ; preds = %27
  %35 = load i64, ptr %12, align 8
  %36 = add i64 %35, %21
  store i64 %36, ptr %12, align 8
  store ptr null, ptr %32, align 8
  %37 = getelementptr inbounds i8, ptr %32, i64 8
  store i32 %22, ptr %37, align 8
  store ptr %32, ptr %4, align 8
  br label %38

38:                                               ; preds = %3, %34
  %.029 = phi ptr [ %32, %34 ], [ %5, %3 ]
  %39 = getelementptr inbounds i8, ptr %.029, i64 8
  %40 = load i32, ptr %39, align 8
  %41 = add i32 %40, -4
  %42 = getelementptr inbounds i8, ptr %.029, i64 12
  store i32 %41, ptr %42, align 4
  store ptr %.029, ptr %0, align 8
  br label %43

43:                                               ; preds = %27, %6, %38
  %.030 = phi i32 [ 0, %38 ], [ -63, %6 ], [ -48, %27 ]
  ret i32 %.030
}